; Function Attrs: mustprogress nofree norecurse nosync nounwind willreturn memory(read, inaccessiblemem: none) uwtable
define noundef nonnull ptr @_ZNK4YAML7Emitter15ComputeNullNameEv(ptr noundef nonnull readonly align 8 captures(none) dereferenceable(72) %0) local_unnamed_addr #8 align 2 {
  %2 = load ptr, ptr %0, align 8, !tbaa !3
  %3 = getelementptr inbounds nuw i8, ptr %2, i64 60
  %4 = load i32, ptr %3, align 4, !tbaa !65
  %switch.tableidx = add i32 %4, -9
  %5 = icmp ult i32 %switch.tableidx, 3
  br i1 %5, label %switch.lookup, label %7

switch.lookup:                                    ; preds = %1
  %6 = zext nneg i32 %switch.tableidx to i64
  %switch.gep = getelementptr inbounds nuw [3 x ptr], ptr @switch.table._ZN4YAML7Emitter5WriteERKNS_5_NullE, i64 0, i64 %6
  %switch.load = load ptr, ptr %switch.gep, align 8
  br label %7

7:                                                ; preds = %1, %switch.lookup
  %.0 = phi ptr [ %switch.load, %switch.lookup ], [ @.str.40, %1 ]
  ret ptr %.0
}